target datalayout = "e-m:e-p270:32:32-p271:32:32-p272:64:64-i64:64-i128:128-f80:128-n8:16:32:64-S128"
target triple = "x86_64-pc-linux-gnu"

%struct.chown_args = type { i32, i32 }
%struct.nogvl_chown_data = type { %union.anon.7, %struct.chown_args }
%union.anon.7 = type { ptr }

; Function Attrs: nounwind sspstrong uwtable
define internal ptr @nogvl_fchown(ptr noundef %0) #0 {
  %2 = alloca ptr, align 8
  %3 = alloca ptr, align 8
  store ptr %0, ptr %2, align 8, !tbaa !83
  call void @llvm.lifetime.start.p0(i64 8, ptr %3) #24
  %4 = load ptr, ptr %2, align 8, !tbaa !83
  store ptr %4, ptr %3, align 8, !tbaa !255
  %5 = load ptr, ptr %3, align 8, !tbaa !255
  %6 = getelementptr inbounds nuw %struct.nogvl_chown_data, ptr %5, i32 0, i32 0
  %7 = load i32, ptr %6, align 8, !tbaa !27
  %8 = load ptr, ptr %3, align 8, !tbaa !255
  %9 = getelementptr inbounds nuw %struct.nogvl_chown_data, ptr %8, i32 0, i32 1
  %10 = getelementptr inbounds nuw %struct.chown_args, ptr %9, i32 0, i32 0
  %11 = load i32, ptr %10, align 8, !tbaa !257
  %12 = load ptr, ptr %3, align 8, !tbaa !255
  %13 = getelementptr inbounds nuw %struct.nogvl_chown_data, ptr %12, i32 0, i32 1
  %14 = getelementptr inbounds nuw %struct.chown_args, ptr %13, i32 0, i32 1
  %15 = load i32, ptr %14, align 4, !tbaa !259
  %16 = call i32 @fchown(i32 noundef %7, i32 noundef %11, i32 noundef %15) #24
  %17 = sext i32 %16 to i64
  %18 = inttoptr i64 %17 to ptr
  call void @llvm.lifetime.end.p0(i64 8, ptr %3) #24
  ret ptr %18
}