; Function Attrs: nounwind sspstrong uwtable
define internal ptr @nogvl_fchown(ptr noundef readonly captures(none) %0) #0 {
  %2 = load i32, ptr %0, align 8, !tbaa !27
  %3 = getelementptr inbounds nuw i8, ptr %0, i64 8
  %4 = load i32, ptr %3, align 8, !tbaa !347
  %5 = getelementptr inbounds nuw i8, ptr %0, i64 12
  %6 = load i32, ptr %5, align 4, !tbaa !349
  %7 = tail call i32 @fchown(i32 noundef %2, i32 noundef %4, i32 noundef %6) #22
  %8 = sext i32 %7 to i64
  %9 = inttoptr i64 %8 to ptr
  ret ptr %9
}